target datalayout = "e-m:e-p270:32:32-p271:32:32-p272:64:64-i64:64-i128:128-f80:128-n8:16:32:64-S128"
target triple = "x86_64-unknown-linux-gnu"

module asm ".section \22.export_symbol\22,\22a\22 ; __export_symbol_pci_find_host_bridge: ; .asciz \22GPL\22 ; .asciz \22\22 ; .balign 8 ; .quad pci_find_host_bridge ; .previous"
module asm ".section \22.export_symbol\22,\22a\22 ; __export_symbol_pci_set_host_bridge_release: ; .asciz \22GPL\22 ; .asciz \22\22 ; .balign 8 ; .quad pci_set_host_bridge_release ; .previous"
module asm ".section \22.export_symbol\22,\22a\22 ; __export_symbol_pcibios_resource_to_bus: ; .asciz \22\22 ; .asciz \22\22 ; .balign 8 ; .quad pcibios_resource_to_bus ; .previous"
module asm ".section \22.export_symbol\22,\22a\22 ; __export_symbol_pcibios_bus_to_resource: ; .asciz \22\22 ; .asciz \22\22 ; .balign 8 ; .quad pcibios_bus_to_resource ; .previous"

@__UNIQUE_ID___addressable_pci_find_host_bridge352 = internal global ptr @pci_find_host_bridge, section ".discard.addressable", align 8
@__UNIQUE_ID___addressable_pci_set_host_bridge_release353 = internal global ptr @pci_set_host_bridge_release, section ".discard.addressable", align 8
@__UNIQUE_ID___addressable_pcibios_resource_to_bus354 = internal global ptr @pcibios_resource_to_bus, section ".discard.addressable", align 8
@__UNIQUE_ID___addressable_pcibios_bus_to_resource355 = internal global ptr @pcibios_bus_to_resource, section ".discard.addressable", align 8
@llvm.compiler.used = appending global [4 x ptr] [ptr @__UNIQUE_ID___addressable_pci_find_host_bridge352, ptr @__UNIQUE_ID___addressable_pci_set_host_bridge_release353, ptr @__UNIQUE_ID___addressable_pcibios_bus_to_resource355, ptr @__UNIQUE_ID___addressable_pcibios_resource_to_bus354], section "llvm.metadata"

; Function Attrs: fn_ret_thunk_extern nofree norecurse nosync nounwind null_pointer_is_valid memory(read, inaccessiblemem: none)
define dso_local ptr @pci_find_host_bridge(ptr nocapture noundef readonly %0) #0 align 16 {
  br label %2

2:                                                ; preds = %2, %1
  %3 = phi ptr [ %0, %1 ], [ %5, %2 ]
  %4 = getelementptr inbounds i8, ptr %3, i64 16
  %5 = load ptr, ptr %4, align 8
  %6 = icmp eq ptr %5, null
  br i1 %6, label %7, label %2, !llvm.loop !5

7:                                                ; preds = %2
  %8 = getelementptr inbounds i8, ptr %3, i64 272
  %9 = load ptr, ptr %8, align 8
  ret ptr %9
}

; Function Attrs: fn_ret_thunk_extern nounwind null_pointer_is_valid
define dso_local noundef ptr @pci_get_host_bridge_device(ptr nocapture noundef readonly %0) local_unnamed_addr #1 align 16 {
  %2 = getelementptr inbounds i8, ptr %0, i64 16
  %3 = load ptr, ptr %2, align 8
  br label %4

4:                                                ; preds = %4, %1
  %5 = phi ptr [ %3, %1 ], [ %7, %4 ]
  %6 = getelementptr inbounds i8, ptr %5, i64 16
  %7 = load ptr, ptr %6, align 8
  %8 = icmp eq ptr %7, null
  br i1 %8, label %9, label %4, !llvm.loop !5

9:                                                ; preds = %4
  %10 = getelementptr inbounds i8, ptr %5, i64 272
  %11 = load ptr, ptr %10, align 8
  %12 = tail call ptr @kobject_get(ptr noundef %11) #5
  ret ptr %11
}

; Function Attrs: null_pointer_is_valid
declare dso_local ptr @kobject_get(ptr noundef) local_unnamed_addr #2

; Function Attrs: fn_ret_thunk_extern nounwind null_pointer_is_valid
define dso_local void @pci_put_host_bridge_device(ptr noundef %0) local_unnamed_addr #1 align 16 {
  tail call void @kobject_put(ptr noundef %0) #5
  ret void
}

; Function Attrs: null_pointer_is_valid
declare dso_local void @kobject_put(ptr noundef) local_unnamed_addr #2

; Function Attrs: fn_ret_thunk_extern mustprogress nofree norecurse nosync nounwind null_pointer_is_valid willreturn memory(argmem: write)
define dso_local void @pci_set_host_bridge_release(ptr nocapture noundef writeonly %0, ptr noundef %1, ptr noundef %2) #3 align 16 {
  %4 = getelementptr inbounds i8, ptr %0, i64 816
  store ptr %1, ptr %4, align 16
  %5 = getelementptr inbounds i8, ptr %0, i64 824
  store ptr %2, ptr %5, align 8
  ret void
}

; Function Attrs: fn_ret_thunk_extern nofree norecurse nosync nounwind null_pointer_is_valid memory(read, argmem: readwrite, inaccessiblemem: none)
define dso_local void @pcibios_resource_to_bus(ptr nocapture noundef readonly %0, ptr nocapture noundef writeonly %1, ptr nocapture noundef readonly %2) #4 align 16 {
  br label %4

4:                                                ; preds = %4, %3
  %5 = phi ptr [ %0, %3 ], [ %7, %4 ]
  %6 = getelementptr inbounds i8, ptr %5, i64 16
  %7 = load ptr, ptr %6, align 8
  %8 = icmp eq ptr %7, null
  br i1 %8, label %9, label %4, !llvm.loop !5

9:                                                ; preds = %4
  %10 = getelementptr inbounds i8, ptr %5, i64 272
  %11 = load ptr, ptr %10, align 8
  %12 = getelementptr inbounds i8, ptr %11, i64 768
  %13 = load ptr, ptr %12, align 8
  %14 = icmp eq ptr %13, %12
  br i1 %14, label %46, label %15

15:                                               ; preds = %9
  %16 = getelementptr inbounds i8, ptr %2, i64 24
  %17 = load i64, ptr %16, align 8
  %18 = getelementptr inbounds i8, ptr %2, i64 8
  br label %19

19:                                               ; preds = %40, %15
  %20 = phi ptr [ %13, %15 ], [ %41, %40 ]
  %21 = getelementptr inbounds i8, ptr %20, i64 16
  %22 = load ptr, ptr %21, align 8
  %23 = getelementptr inbounds i8, ptr %22, i64 24
  %24 = load i64, ptr %23, align 8
  %25 = xor i64 %17, %24
  %26 = and i64 %25, 7936
  %27 = or i64 %17, %24
  %28 = and i64 %27, 536870912
  %29 = or disjoint i64 %26, %28
  %30 = icmp eq i64 %29, 0
  br i1 %30, label %31, label %40

31:                                               ; preds = %19
  %32 = load i64, ptr %22, align 8
  %33 = load i64, ptr %2, align 8
  %34 = icmp ugt i64 %32, %33
  br i1 %34, label %40, label %35

35:                                               ; preds = %31
  %36 = getelementptr inbounds i8, ptr %22, i64 8
  %37 = load i64, ptr %36, align 8
  %38 = load i64, ptr %18, align 8
  %39 = icmp ult i64 %37, %38
  br i1 %39, label %40, label %43

40:                                               ; preds = %35, %31, %19
  %41 = load ptr, ptr %20, align 8
  %42 = icmp eq ptr %41, %12
  br i1 %42, label %46, label %19, !llvm.loop !8

43:                                               ; preds = %35
  %44 = getelementptr inbounds i8, ptr %20, i64 24
  %45 = load i64, ptr %44, align 8
  br label %46

46:                                               ; preds = %43, %40, %9
  %47 = phi i64 [ %45, %43 ], [ 0, %9 ], [ 0, %40 ]
  %48 = load i64, ptr %2, align 8
  %49 = sub i64 %48, %47
  store i64 %49, ptr %1, align 8
  %50 = getelementptr inbounds i8, ptr %2, i64 8
  %51 = load i64, ptr %50, align 8
  %52 = sub i64 %51, %47
  %53 = getelementptr inbounds i8, ptr %1, i64 8
  store i64 %52, ptr %53, align 8
  ret void
}

; Function Attrs: fn_ret_thunk_extern nofree norecurse nosync nounwind null_pointer_is_valid memory(read, argmem: readwrite, inaccessiblemem: none)
define dso_local void @pcibios_bus_to_resource(ptr nocapture noundef readonly %0, ptr nocapture noundef %1, ptr nocapture noundef readonly %2) #4 align 16 {
  br label %4

4:                                                ; preds = %4, %3
  %5 = phi ptr [ %0, %3 ], [ %7, %4 ]
  %6 = getelementptr inbounds i8, ptr %5, i64 16
  %7 = load ptr, ptr %6, align 8
  %8 = icmp eq ptr %7, null
  br i1 %8, label %9, label %4, !llvm.loop !5

9:                                                ; preds = %4
  %10 = getelementptr inbounds i8, ptr %5, i64 272
  %11 = load ptr, ptr %10, align 8
  %12 = getelementptr inbounds i8, ptr %11, i64 768
  %13 = getelementptr inbounds i8, ptr %1, i64 24
  %14 = getelementptr inbounds i8, ptr %2, i64 8
  br label %15

15:                                               ; preds = %45, %9
  %16 = phi i64 [ 0, %9 ], [ %46, %45 ]
  %17 = phi ptr [ %12, %9 ], [ %18, %45 ]
  %18 = load ptr, ptr %17, align 8
  %19 = icmp eq ptr %18, %12
  br i1 %19, label %48, label %20

20:                                               ; preds = %15
  %21 = load i64, ptr %13, align 8
  %22 = getelementptr inbounds i8, ptr %18, i64 16
  %23 = load ptr, ptr %22, align 8
  %24 = getelementptr inbounds i8, ptr %23, i64 24
  %25 = load i64, ptr %24, align 8
  %26 = xor i64 %25, %21
  %27 = and i64 %26, 7936
  %28 = icmp eq i64 %27, 0
  br i1 %28, label %29, label %45

29:                                               ; preds = %20
  %30 = load i64, ptr %23, align 8
  %31 = getelementptr inbounds i8, ptr %18, i64 24
  %32 = load i64, ptr %31, align 8
  %33 = sub i64 %30, %32
  %34 = load i64, ptr %2, align 8
  %35 = icmp ugt i64 %33, %34
  br i1 %35, label %42, label %36

36:                                               ; preds = %29
  %37 = getelementptr inbounds i8, ptr %23, i64 8
  %38 = load i64, ptr %37, align 8
  %39 = sub i64 %38, %32
  %40 = load i64, ptr %14, align 8
  %41 = icmp uge i64 %39, %40
  br label %42

42:                                               ; preds = %36, %29
  %43 = phi i1 [ false, %29 ], [ %41, %36 ]
  %44 = select i1 %43, i64 %32, i64 %16
  br label %45

45:                                               ; preds = %42, %20
  %46 = phi i64 [ %16, %20 ], [ %44, %42 ]
  %47 = phi i1 [ false, %20 ], [ %43, %42 ]
  br i1 %47, label %48, label %15, !llvm.loop !9

48:                                               ; preds = %45, %15
  %49 = phi i64 [ %46, %45 ], [ %16, %15 ]
  %50 = load i64, ptr %2, align 8
  %51 = add i64 %50, %49
  store i64 %51, ptr %1, align 8
  %52 = getelementptr inbounds i8, ptr %2, i64 8
  %53 = load i64, ptr %52, align 8
  %54 = add i64 %53, %49
  %55 = getelementptr inbounds i8, ptr %1, i64 8
  store i64 %54, ptr %55, align 8
  ret void
}


!llvm.module.flags = !{!0, !1, !2, !3, !4}

!0 = !{i32 1, !"wchar_size", i32 2}
!1 = !{i32 8, !"cf-protection-branch", i32 1}
!2 = !{i32 4, !"function_return_thunk_extern", i32 1}
!3 = !{i32 4, !"indirect_branch_cs_prefix", i32 1}
!4 = !{i32 4, !"SkipRaxSetup", i32 1}
!5 = distinct !{!5, !6, !7}
!6 = !{!"llvm.loop.mustprogress"}
!7 = !{!"llvm.loop.unroll.disable"}
!8 = distinct !{!8, !6, !7}
!9 = distinct !{!9, !6, !7}
